target datalayout = "e-m:e-p270:32:32-p271:32:32-p272:64:64-i64:64-i128:128-f80:128-n8:16:32:64-S128"
target triple = "x86_64-pc-linux-gnu"

%struct.Res_Sim_t_ = type { ptr, i32, i32, i32, i32, i32, i32, i32, i32, i32, i32, ptr, ptr, ptr, ptr, i32, i32, ptr, i64 }
%struct.Vec_Ptr_t_ = type { i32, i32, ptr }
%struct.Abc_Ntk_t_ = type { i32, i32, ptr, ptr, ptr, ptr, ptr, ptr, ptr, ptr, ptr, ptr, ptr, [11 x i32], i32, i32, i32, i32, ptr, i32, ptr, ptr, i32, i32, i32, double, i32, %struct.Vec_Int_t_, ptr, ptr, ptr, ptr, ptr, float, i32, ptr, ptr, ptr, ptr, ptr, ptr, ptr, ptr, ptr, ptr, ptr, ptr, ptr, ptr, ptr, ptr, ptr, ptr, ptr, ptr, ptr, ptr }
%struct.Vec_Int_t_ = type { i32, i32, ptr }
%struct.Abc_Obj_t_ = type { ptr, ptr, i32, i32, %struct.Vec_Int_t_, %struct.Vec_Int_t_, %union.anon, %union.anon.0 }
%union.anon = type { ptr }
%union.anon.0 = type { ptr }

; Function Attrs: inlinehint nounwind uwtable
define internal i32 @Vec_PtrSize(ptr noundef %0) #4 {
  %2 = alloca ptr, align 8
  store ptr %0, ptr %2, align 8, !tbaa !44
  %3 = load ptr, ptr %2, align 8, !tbaa !44
  %4 = getelementptr inbounds nuw %struct.Vec_Ptr_t_, ptr %3, i32 0, i32 1
  %5 = load i32, ptr %4, align 4, !tbaa !45
  ret i32 %5
}

; Function Attrs: inlinehint nounwind uwtable
define internal ptr @Vec_PtrEntry(ptr noundef %0, i32 noundef %1) #4 {
  %3 = alloca ptr, align 8
  %4 = alloca i32, align 4
  store ptr %0, ptr %3, align 8, !tbaa !44
  store i32 %1, ptr %4, align 4, !tbaa !3
  %5 = load ptr, ptr %3, align 8, !tbaa !44
  %6 = getelementptr inbounds nuw %struct.Vec_Ptr_t_, ptr %5, i32 0, i32 2
  %7 = load ptr, ptr %6, align 8, !tbaa !61
  %8 = load i32, ptr %4, align 4, !tbaa !3
  %9 = sext i32 %8 to i64
  %10 = getelementptr inbounds ptr, ptr %7, i64 %9
  %11 = load ptr, ptr %10, align 8, !tbaa !27
  ret ptr %11
}

; Function Attrs: inlinehint nounwind uwtable
define internal ptr @Abc_NtkPo(ptr noundef %0, i32 noundef %1) #4 {
  %3 = alloca ptr, align 8
  %4 = alloca i32, align 4
  store ptr %0, ptr %3, align 8, !tbaa !37
  store i32 %1, ptr %4, align 4, !tbaa !3
  %5 = load ptr, ptr %3, align 8, !tbaa !37
  %6 = getelementptr inbounds nuw %struct.Abc_Ntk_t_, ptr %5, i32 0, i32 7
  %7 = load ptr, ptr %6, align 8, !tbaa !62
  %8 = load i32, ptr %4, align 4, !tbaa !3
  %9 = call ptr @Vec_PtrEntry(ptr noundef %7, i32 noundef %8)
  ret ptr %9
}

; Function Attrs: inlinehint nounwind uwtable
define internal i32 @Abc_NtkPoNum(ptr noundef %0) #4 {
  %2 = alloca ptr, align 8
  store ptr %0, ptr %2, align 8, !tbaa !37
  %3 = load ptr, ptr %2, align 8, !tbaa !37
  %4 = getelementptr inbounds nuw %struct.Abc_Ntk_t_, ptr %3, i32 0, i32 7
  %5 = load ptr, ptr %4, align 8, !tbaa !62
  %6 = call i32 @Vec_PtrSize(ptr noundef %5)
  ret i32 %6
}

; Function Attrs: nounwind uwtable
define void @Res_SimDeriveInfoReplicate(ptr noundef %0) #0 {
  %2 = alloca ptr, align 8
  %3 = alloca ptr, align 8
  %4 = alloca ptr, align 8
  %5 = alloca ptr, align 8
  %6 = alloca i32, align 4
  %7 = alloca i32, align 4
  %8 = alloca i32, align 4
  store ptr %0, ptr %2, align 8, !tbaa !7
  call void @llvm.lifetime.start.p0(i64 8, ptr %3) #7
  call void @llvm.lifetime.start.p0(i64 8, ptr %4) #7
  call void @llvm.lifetime.start.p0(i64 8, ptr %5) #7
  call void @llvm.lifetime.start.p0(i64 4, ptr %6) #7
  call void @llvm.lifetime.start.p0(i64 4, ptr %7) #7
  call void @llvm.lifetime.start.p0(i64 4, ptr %8) #7
  store i32 0, ptr %6, align 4, !tbaa !3
  br label %9

9:                                                ; preds = %66, %1
  %10 = load i32, ptr %6, align 4, !tbaa !3
  %11 = load ptr, ptr %2, align 8, !tbaa !7
  %12 = getelementptr inbounds nuw %struct.Res_Sim_t_, ptr %11, i32 0, i32 0
  %13 = load ptr, ptr %12, align 8, !tbaa !38
  %14 = call i32 @Abc_NtkPoNum(ptr noundef %13)
  %15 = icmp slt i32 %10, %14
  br i1 %15, label %16, label %22

16:                                               ; preds = %9
  %17 = load ptr, ptr %2, align 8, !tbaa !7
  %18 = getelementptr inbounds nuw %struct.Res_Sim_t_, ptr %17, i32 0, i32 0
  %19 = load ptr, ptr %18, align 8, !tbaa !38
  %20 = load i32, ptr %6, align 4, !tbaa !3
  %21 = call ptr @Abc_NtkPo(ptr noundef %19, i32 noundef %20)
  store ptr %21, ptr %5, align 8, !tbaa !65
  br label %22

22:                                               ; preds = %16, %9
  %23 = phi i1 [ false, %9 ], [ true, %16 ]
  br i1 %23, label %24, label %69

24:                                               ; preds = %22
  %25 = load ptr, ptr %2, align 8, !tbaa !7
  %26 = getelementptr inbounds nuw %struct.Res_Sim_t_, ptr %25, i32 0, i32 11
  %27 = load ptr, ptr %26, align 8, !tbaa !22
  %28 = load ptr, ptr %5, align 8, !tbaa !65
  %29 = getelementptr inbounds nuw %struct.Abc_Obj_t_, ptr %28, i32 0, i32 2
  %30 = load i32, ptr %29, align 8, !tbaa !67
  %31 = call ptr @Vec_PtrEntry(ptr noundef %27, i32 noundef %30)
  store ptr %31, ptr %3, align 8, !tbaa !28
  %32 = load ptr, ptr %2, align 8, !tbaa !7
  %33 = getelementptr inbounds nuw %struct.Res_Sim_t_, ptr %32, i32 0, i32 14
  %34 = load ptr, ptr %33, align 8, !tbaa !25
  %35 = load i32, ptr %6, align 4, !tbaa !3
  %36 = call ptr @Vec_PtrEntry(ptr noundef %34, i32 noundef %35)
  store ptr %36, ptr %4, align 8, !tbaa !28
  store i32 0, ptr %7, align 4, !tbaa !3
  br label %37

37:                                               ; preds = %62, %24
  %38 = load i32, ptr %7, align 4, !tbaa !3
  %39 = load ptr, ptr %2, align 8, !tbaa !7
  %40 = getelementptr inbounds nuw %struct.Res_Sim_t_, ptr %39, i32 0, i32 5
  %41 = load i32, ptr %40, align 8, !tbaa !16
  %42 = icmp slt i32 %38, %41
  br i1 %42, label %43, label %65

43:                                               ; preds = %37
  store i32 0, ptr %8, align 4, !tbaa !3
  br label %44

44:                                               ; preds = %58, %43
  %45 = load i32, ptr %8, align 4, !tbaa !3
  %46 = load ptr, ptr %2, align 8, !tbaa !7
  %47 = getelementptr inbounds nuw %struct.Res_Sim_t_, ptr %46, i32 0, i32 4
  %48 = load i32, ptr %47, align 4, !tbaa !10
  %49 = icmp slt i32 %45, %48
  br i1 %49, label %50, label %61

50:                                               ; preds = %44
  %51 = load ptr, ptr %3, align 8, !tbaa !28
  %52 = load i32, ptr %8, align 4, !tbaa !3
  %53 = sext i32 %52 to i64
  %54 = getelementptr inbounds i32, ptr %51, i64 %53
  %55 = load i32, ptr %54, align 4, !tbaa !3
  %56 = load ptr, ptr %4, align 8, !tbaa !28
  %57 = getelementptr inbounds nuw i32, ptr %56, i32 1
  store ptr %57, ptr %4, align 8, !tbaa !28
  store i32 %55, ptr %56, align 4, !tbaa !3
  br label %58

58:                                               ; preds = %50
  %59 = load i32, ptr %8, align 4, !tbaa !3
  %60 = add nsw i32 %59, 1
  store i32 %60, ptr %8, align 4, !tbaa !3
  br label %44, !llvm.loop !99

61:                                               ; preds = %44
  br label %62

62:                                               ; preds = %61
  %63 = load i32, ptr %7, align 4, !tbaa !3
  %64 = add nsw i32 %63, 1
  store i32 %64, ptr %7, align 4, !tbaa !3
  br label %37, !llvm.loop !100

65:                                               ; preds = %37
  br label %66

66:                                               ; preds = %65
  %67 = load i32, ptr %6, align 4, !tbaa !3
  %68 = add nsw i32 %67, 1
  store i32 %68, ptr %6, align 4, !tbaa !3
  br label %9, !llvm.loop !101

69:                                               ; preds = %22
  call void @llvm.lifetime.end.p0(i64 4, ptr %8) #7
  call void @llvm.lifetime.end.p0(i64 4, ptr %7) #7
  call void @llvm.lifetime.end.p0(i64 4, ptr %6) #7
  call void @llvm.lifetime.end.p0(i64 8, ptr %5) #7
  call void @llvm.lifetime.end.p0(i64 8, ptr %4) #7
  call void @llvm.lifetime.end.p0(i64 8, ptr %3) #7
  ret void
}