; Function Attrs: nofree norecurse nosync nounwind memory(readwrite, inaccessiblemem: none) uwtable
define void @Res_SimDeriveInfoReplicate(ptr noundef readonly captures(none) %0) local_unnamed_addr #7 {
  %2 = load ptr, ptr %0, align 8, !tbaa !36
  %3 = getelementptr i8, ptr %2, i64 48
  %.val = load ptr, ptr %3, align 8, !tbaa !53
  %4 = getelementptr i8, ptr %.val, i64 4
  %.val.val28 = load i32, ptr %4, align 4, !tbaa !22
  %5 = icmp sgt i32 %.val.val28, 0
  br i1 %5, label %.lr.ph31, label %.critedge

.lr.ph31:                                         ; preds = %1
  %6 = getelementptr i8, ptr %.val, i64 8
  %.val22.val = load ptr, ptr %6, align 8, !tbaa !25
  %7 = getelementptr inbounds nuw i8, ptr %0, i64 48
  %8 = load ptr, ptr %7, align 8, !tbaa !26
  %9 = getelementptr i8, ptr %8, i64 8
  %.val21 = load ptr, ptr %9, align 8, !tbaa !25
  %10 = getelementptr inbounds nuw i8, ptr %0, i64 72
  %11 = load ptr, ptr %10, align 8, !tbaa !29
  %12 = getelementptr i8, ptr %11, i64 8
  %.val20 = load ptr, ptr %12, align 8, !tbaa !25
  %13 = getelementptr inbounds nuw i8, ptr %0, i64 24
  %14 = getelementptr inbounds nuw i8, ptr %0, i64 20
  %15 = load i32, ptr %13, align 8, !tbaa !13
  %16 = icmp sgt i32 %15, 0
  br i1 %16, label %.lr.ph31.split, label %.critedge

.lr.ph31.split:                                   ; preds = %.lr.ph31, %._crit_edge27
  %.val.val38 = phi i32 [ %.val.val, %._crit_edge27 ], [ %.val.val28, %.lr.ph31 ]
  %17 = phi i32 [ %44, %._crit_edge27 ], [ %15, %.lr.ph31 ]
  %18 = phi i32 [ %45, %._crit_edge27 ], [ %15, %.lr.ph31 ]
  %indvars.iv35 = phi i64 [ %indvars.iv.next36, %._crit_edge27 ], [ 0, %.lr.ph31 ]
  %19 = getelementptr inbounds nuw ptr, ptr %.val22.val, i64 %indvars.iv35
  %20 = load ptr, ptr %19, align 8, !tbaa !19
  %21 = getelementptr inbounds nuw i8, ptr %20, i64 16
  %22 = load i32, ptr %21, align 8, !tbaa !62
  %23 = sext i32 %22 to i64
  %24 = getelementptr inbounds ptr, ptr %.val21, i64 %23
  %25 = load ptr, ptr %24, align 8, !tbaa !19
  %26 = icmp sgt i32 %18, 0
  br i1 %26, label %.preheader.lr.ph, label %._crit_edge27

.preheader.lr.ph:                                 ; preds = %.lr.ph31.split
  %27 = load i32, ptr %14, align 4, !tbaa !3
  %28 = icmp sgt i32 %27, 0
  br i1 %28, label %.preheader.preheader, label %._crit_edge27

.preheader.preheader:                             ; preds = %.preheader.lr.ph
  %29 = getelementptr inbounds nuw ptr, ptr %.val20, i64 %indvars.iv35
  %30 = load ptr, ptr %29, align 8, !tbaa !19
  br label %.preheader

.preheader:                                       ; preds = %.preheader.preheader, %._crit_edge
  %31 = phi i32 [ %40, %._crit_edge ], [ %17, %.preheader.preheader ]
  %32 = phi i32 [ %41, %._crit_edge ], [ %27, %.preheader.preheader ]
  %.01726 = phi i32 [ %42, %._crit_edge ], [ 0, %.preheader.preheader ]
  %.01925 = phi ptr [ %.1.lcssa, %._crit_edge ], [ %30, %.preheader.preheader ]
  %33 = icmp sgt i32 %32, 0
  br i1 %33, label %.lr.ph, label %._crit_edge

.lr.ph:                                           ; preds = %.preheader, %.lr.ph
  %indvars.iv = phi i64 [ %indvars.iv.next, %.lr.ph ], [ 0, %.preheader ]
  %.123 = phi ptr [ %36, %.lr.ph ], [ %.01925, %.preheader ]
  %34 = getelementptr inbounds nuw i32, ptr %25, i64 %indvars.iv
  %35 = load i32, ptr %34, align 4, !tbaa !59
  %36 = getelementptr inbounds nuw i8, ptr %.123, i64 4
  store i32 %35, ptr %.123, align 4, !tbaa !59
  %indvars.iv.next = add nuw nsw i64 %indvars.iv, 1
  %37 = load i32, ptr %14, align 4, !tbaa !3
  %38 = sext i32 %37 to i64
  %39 = icmp slt i64 %indvars.iv.next, %38
  br i1 %39, label %.lr.ph, label %._crit_edge.loopexit, !llvm.loop !98

._crit_edge.loopexit:                             ; preds = %.lr.ph
  %.pre = load i32, ptr %13, align 8, !tbaa !13
  br label %._crit_edge

._crit_edge:                                      ; preds = %._crit_edge.loopexit, %.preheader
  %40 = phi i32 [ %31, %.preheader ], [ %.pre, %._crit_edge.loopexit ]
  %41 = phi i32 [ %32, %.preheader ], [ %37, %._crit_edge.loopexit ]
  %.1.lcssa = phi ptr [ %.01925, %.preheader ], [ %36, %._crit_edge.loopexit ]
  %42 = add nuw nsw i32 %.01726, 1
  %43 = icmp slt i32 %42, %40
  br i1 %43, label %.preheader, label %._crit_edge27.loopexit, !llvm.loop !99

._crit_edge27.loopexit:                           ; preds = %._crit_edge
  %.val.val.pre = load i32, ptr %4, align 4, !tbaa !22
  br label %._crit_edge27

._crit_edge27:                                    ; preds = %.preheader.lr.ph, %._crit_edge27.loopexit, %.lr.ph31.split
  %.val.val = phi i32 [ %.val.val.pre, %._crit_edge27.loopexit ], [ %.val.val38, %.lr.ph31.split ], [ %.val.val38, %.preheader.lr.ph ]
  %44 = phi i32 [ %40, %._crit_edge27.loopexit ], [ %17, %.lr.ph31.split ], [ %17, %.preheader.lr.ph ]
  %45 = phi i32 [ %40, %._crit_edge27.loopexit ], [ %18, %.lr.ph31.split ], [ %18, %.preheader.lr.ph ]
  %indvars.iv.next36 = add nuw nsw i64 %indvars.iv35, 1
  %46 = sext i32 %.val.val to i64
  %47 = icmp slt i64 %indvars.iv.next36, %46
  br i1 %47, label %.lr.ph31.split, label %.critedge, !llvm.loop !100

.critedge:                                        ; preds = %._crit_edge27, %.lr.ph31, %1
  ret void
}